; Function Attrs: nofree norecurse nosync nounwind memory(argmem: readwrite) uwtable
define dso_local noundef ptr @decNumberCopySign(ptr noundef returned captures(address, ret: address, provenance) %0, ptr noundef readonly captures(address) %1, ptr noundef readonly captures(none) %2) local_unnamed_addr #0 {
  %4 = getelementptr inbounds nuw i8, ptr %2, i64 8
  %5 = load i8, ptr %4, align 4, !tbaa !4
  %6 = icmp eq ptr %0, %1
  br i1 %6, label %.decNumberCopy.exit_crit_edge, label %7

.decNumberCopy.exit_crit_edge:                    ; preds = %3
  %.phi.trans.insert = getelementptr inbounds nuw i8, ptr %0, i64 8
  %.pre = load i8, ptr %.phi.trans.insert, align 4, !tbaa !4
  br label %decNumberCopy.exit

7:                                                ; preds = %3
  %8 = getelementptr inbounds nuw i8, ptr %1, i64 8
  %9 = load i8, ptr %8, align 4, !tbaa !4
  %10 = getelementptr inbounds nuw i8, ptr %1, i64 4
  %11 = load i32, ptr %10, align 4, !tbaa !9
  %12 = getelementptr inbounds nuw i8, ptr %0, i64 4
  store i32 %11, ptr %12, align 4, !tbaa !9
  %13 = load i32, ptr %1, align 4, !tbaa !10
  store i32 %13, ptr %0, align 4, !tbaa !10
  %.ptr.i = getelementptr inbounds nuw i8, ptr %1, i64 10
  %14 = load i16, ptr %.ptr.i, align 2, !tbaa !11
  %15 = getelementptr inbounds nuw i8, ptr %0, i64 10
  store i16 %14, ptr %15, align 2, !tbaa !11
  %16 = icmp sgt i32 %13, 3
  br i1 %16, label %17, label %decNumberCopy.exit

17:                                               ; preds = %7
  %18 = getelementptr inbounds nuw i8, ptr %0, i64 12
  %19 = icmp samesign ult i32 %13, 50
  br i1 %19, label %22, label %.thread.i

.thread.i:                                        ; preds = %17
  %20 = add nuw nsw i32 %13, 2
  %21 = udiv i32 %20, 3
  br label %.lr.ph.preheader.i

22:                                               ; preds = %17
  %23 = zext nneg i32 %13 to i64
  %24 = getelementptr inbounds nuw [50 x i8], ptr @d2utable, i64 0, i64 %23
  %25 = load i8, ptr %24, align 1, !tbaa !19
  %26 = zext i8 %25 to i32
  br label %.lr.ph.preheader.i

.lr.ph.preheader.i:                               ; preds = %22, %.thread.i
  %.idx34.pn.in.in.i = phi i32 [ %21, %.thread.i ], [ %26, %22 ]
  %.idx34.pn.in.i = shl nuw nsw i32 %.idx34.pn.in.in.i, 1
  %.idx34.pn.i = zext nneg i32 %.idx34.pn.in.i to i64
  %.pn.i = getelementptr inbounds nuw i8, ptr %1, i64 %.idx34.pn.i
  %.ptr3336.i = getelementptr inbounds nuw i8, ptr %.pn.i, i64 10
  %27 = getelementptr inbounds nuw i8, ptr %1, i64 12
  br label %.lr.ph.i

.lr.ph.i:                                         ; preds = %.lr.ph.i, %.lr.ph.preheader.i
  %.032.i = phi ptr [ %30, %.lr.ph.i ], [ %18, %.lr.ph.preheader.i ]
  %.02631.i = phi ptr [ %29, %.lr.ph.i ], [ %27, %.lr.ph.preheader.i ]
  %28 = load i16, ptr %.02631.i, align 2, !tbaa !11
  store i16 %28, ptr %.032.i, align 2, !tbaa !11
  %29 = getelementptr inbounds nuw i8, ptr %.02631.i, i64 2
  %30 = getelementptr inbounds nuw i8, ptr %.032.i, i64 2
  %31 = icmp ult ptr %29, %.ptr3336.i
  br i1 %31, label %.lr.ph.i, label %decNumberCopy.exit, !llvm.loop !39

decNumberCopy.exit:                               ; preds = %.lr.ph.i, %.decNumberCopy.exit_crit_edge, %7
  %32 = phi i8 [ %.pre, %.decNumberCopy.exit_crit_edge ], [ %9, %7 ], [ %9, %.lr.ph.i ]
  %33 = and i8 %5, -128
  %34 = getelementptr inbounds nuw i8, ptr %0, i64 8
  %35 = and i8 %32, 127
  %36 = or disjoint i8 %35, %33
  store i8 %36, ptr %34, align 4, !tbaa !4
  ret ptr %0
}